; Function Attrs: mustprogress uwtable
define dso_local void @_ZN10ThreadPool10workerFuncEi(ptr noundef nonnull align 8 dereferenceable(121) %this, i32 %tIndex) #9 align 2 personality ptr @__gxx_personality_v0 {
entry:
  %lock = alloca %"class.std::unique_lock", align 8
  %jobListMutex = getelementptr inbounds i8, ptr %this, i64 8
  store ptr %jobListMutex, ptr %lock, align 8
  %_M_owns.i = getelementptr inbounds i8, ptr %lock, i64 8
  %call1.i.i.i.i = tail call noundef i32 @pthread_mutex_lock(ptr noundef nonnull %jobListMutex) #31
  %tobool.not.i.i.i = icmp eq i32 %call1.i.i.i.i, 0
  br i1 %tobool.not.i.i.i, label %_ZNSt11unique_lockISt5mutexEC2ERS0_.exit, label %if.then.i.i.i

if.then.i.i.i:                                    ; preds = %entry
  tail call void @_ZSt20__throw_system_errori(i32 noundef %call1.i.i.i.i) #32
  unreachable

_ZNSt11unique_lockISt5mutexEC2ERS0_.exit:         ; preds = %entry
  store i8 1, ptr %_M_owns.i, align 8
  %shutdownThreads = getelementptr inbounds i8, ptr %this, i64 120
  br label %while.cond

while.cond:                                       ; preds = %while.body, %_ZNSt11unique_lockISt5mutexEC2ERS0_.exit
  %0 = load i8, ptr %shutdownThreads, align 8
  %1 = and i8 %0, 1
  %tobool.not = icmp eq i8 %1, 0
  br i1 %tobool.not, label %while.body, label %while.end

while.body:                                       ; preds = %while.cond
  invoke void @_ZN10ThreadPool10WorkOrWaitEPSt11unique_lockISt5mutexE(ptr noundef nonnull align 8 dereferenceable(121) %this, ptr noundef nonnull %lock)
          to label %while.cond unwind label %lpad, !llvm.loop !36

lpad:                                             ; preds = %while.body
  %2 = landingpad { ptr, i32 }
          cleanup
  %3 = load i8, ptr %_M_owns.i, align 8
  %4 = and i8 %3, 1
  %tobool.not.i = icmp eq i8 %4, 0
  br i1 %tobool.not.i, label %_ZNSt11unique_lockISt5mutexED2Ev.exit, label %if.else.i.i

if.else.i.i:                                      ; preds = %lpad
  %5 = load ptr, ptr %lock, align 8
  %tobool2.not.i.i = icmp eq ptr %5, null
  br i1 %tobool2.not.i.i, label %_ZNSt11unique_lockISt5mutexED2Ev.exit, label %if.then3.i.i

if.then3.i.i:                                     ; preds = %if.else.i.i
  %call1.i.i.i.i2 = call noundef i32 @pthread_mutex_unlock(ptr noundef nonnull %5) #31
  br label %_ZNSt11unique_lockISt5mutexED2Ev.exit

_ZNSt11unique_lockISt5mutexED2Ev.exit:            ; preds = %lpad, %if.else.i.i, %if.then3.i.i
  resume { ptr, i32 } %2

while.end:                                        ; preds = %while.cond
  %6 = load i8, ptr %_M_owns.i, align 8
  %7 = and i8 %6, 1
  %tobool.not.i4 = icmp eq i8 %7, 0
  br i1 %tobool.not.i4, label %_ZNSt11unique_lockISt5mutexED2Ev.exit9, label %if.else.i.i5

if.else.i.i5:                                     ; preds = %while.end
  %8 = load ptr, ptr %lock, align 8
  %tobool2.not.i.i6 = icmp eq ptr %8, null
  br i1 %tobool2.not.i.i6, label %_ZNSt11unique_lockISt5mutexED2Ev.exit9, label %if.then3.i.i7

if.then3.i.i7:                                    ; preds = %if.else.i.i5
  %call1.i.i.i.i8 = call noundef i32 @pthread_mutex_unlock(ptr noundef nonnull %8) #31
  br label %_ZNSt11unique_lockISt5mutexED2Ev.exit9

_ZNSt11unique_lockISt5mutexED2Ev.exit9:           ; preds = %while.end, %if.else.i.i5, %if.then3.i.i7
  ret void
}